; Listing generated by Microsoft (R) Optimizing Compiler Version 19.30.30709.0 

	TITLE	D:\_УЧЁБА_\Лабораторные работы\КПО (Наркевич)\Лаба 2.1\SE_Lab02\Debug\Func_sub.obj
	.686P
	.XMM
	include listing.inc
	.model	flat

INCLUDELIB MSVCRTD
INCLUDELIB OLDNAMES

msvcjmc	SEGMENT
__5B95AFCC_concurrencysal@h DB 01H
__AF7C3541_sal@h DB 01H
__FF4CBCD4_vadefs@h DB 01H
__EF9B48C8_vcruntime@h DB 01H
__0B460DD5_xkeycheck@h DB 01H
__518BDD87_yvals_core@h DB 01H
__3937FC8D_limits@h DB 01H
__A64D14EB_climits DB 01H
__6569C2CA_corecrt@h DB 01H
__356604CF_vcruntime_new@h DB 01H
__6C55A9F6_vcruntime_new_debug@h DB 01H
__49916C16_crtdbg@h DB 01H
__98E9459B_crtdefs@h DB 01H
__7B851503_use_ansi@h DB 01H
__94E280A6_yvals@h DB 01H
__741AE07E_corecrt_math@h DB 01H
__91D68F2D_math@h DB 01H
__6C20D4D3_corecrt_malloc@h DB 01H
__C9393812_stddef@h DB 01H
__D493B9BD_corecrt_search@h DB 01H
__1473E23E_corecrt_wstdlib@h DB 01H
__B49664B7_stdlib@h DB 01H
__22A23619_cstdlib DB 01H
__808B274A_xtr1common DB 01H
__DB8DB16E_intrin0@inl@h DB 01H
__81C4FC90_intrin0@h DB 01H
__CDC63BF6_cmath DB 01H
__A2143F22_corecrt_stdio_config@h DB 01H
__829E1958_corecrt_wstdio@h DB 01H
__6DFAE8B8_stdio@h DB 01H
__3434F1A4_cstdio DB 01H
__CDDAF8CA_errno@h DB 01H
__E6DA1474_vcruntime_string@h DB 01H
__1FEB9909_corecrt_memcpy_s@h DB 01H
__A751F051_corecrt_memory@h DB 01H
__9200769A_corecrt_wstring@h DB 01H
__32E5F013_string@h DB 01H
__6E309EF9_cstring DB 01H
__C6E16F6F_corecrt_wconio@h DB 01H
__5DB64B66_corecrt_wctype@h DB 01H
__CB8D9B53_corecrt_wdirect@h DB 01H
__A9063C41_corecrt_share@h DB 01H
__6D390390_corecrt_wio@h DB 01H
__61BDDCD5_corecrt_wprocess@h DB 01H
__1157D6BA_corecrt_wtime@h DB 01H
__64F617E8_types@h DB 01H
__1DC1E279_stat@h DB 01H
__93DC0B45_wchar@h DB 01H
__AEBF27F7_cwchar DB 01H
__8769ECB4_cstddef DB 01H
__4153D9FF_initializer_list DB 01H
__E2B02480_xstddef DB 01H
__ED7FA2C1_iosfwd DB 01H
__8741D2B2_stdint@h DB 01H
__9FFCD764_cstdint DB 01H
__45EFCB1E_type_traits DB 01H
__15AFB392_utility DB 01H
__EB99AA4F_xutility DB 01H
__FA351D0F_iterator DB 01H
__5B81F060_share@h DB 01H
__69F41CE0___msvc_system_error_abi@hpp DB 01H
__A915855F_cerrno DB 01H
__20BB4341_malloc@h DB 01H
__3C5D8049_corecrt_terminate@h DB 01H
__517DF72F_eh@h DB 01H
__64BBACA4_vcruntime_exception@h DB 01H
__50B62B0D_exception DB 01H
__158E8E48_float@h DB 01H
__47703A23_cfloat DB 01H
__35511E07_isa_availability@h DB 01H
__21967747_limits DB 01H
__08BB6DA5_new DB 01H
__5ABAA7DB_xatomic@h DB 01H
__7F3AD051_xmemory DB 01H
__0BE956CD_xstring DB 01H
__D9F81150_stdexcept DB 01H
__121303D7_xcall_once@h DB 01H
__3C7795A9_xerrc@h DB 01H
__A0B61CF9_time@h DB 01H
__0B75A7FE_ctime DB 01H
__5D5D490E_xtimec@h DB 01H
__1ACB22B0_xthreads@h DB 01H
__4AA32B85_atomic DB 01H
__AD4E11F7_system_error DB 01H
__C40BCBAA_vcruntime_typeinfo@h DB 01H
__9B465956_typeinfo DB 01H
__9D387BC9_memory DB 01H
__B17D2CC6_xfacet DB 01H
__7C272235___msvc_xlocinfo_types@hpp DB 01H
__B2D2BA86_ctype@h DB 01H
__3BFF1603_cctype DB 01H
__A3D09DBA_locale@h DB 01H
__B10EEAC8_clocale DB 01H
__84CFBA9E_xlocinfo DB 01H
__D4D722FC_xlocale DB 01H
__BD2ACD8D_xiosbase DB 01H
__DB58A9EC_streambuf DB 01H
__4A5044EB_xlocnum DB 01H
__F07657B3_ios DB 01H
__C7C7F838_ostream DB 01H
__A417CD02_istream DB 01H
__89E0D050_iostream DB 01H
__B6EAFBAD_stdafx@h DB 01H
__35E92F2A_Func_sub@cpp DB 01H
msvcjmc	ENDS
PUBLIC	?__empty_global_delete@@YAXPAX@Z		; __empty_global_delete
PUBLIC	?__empty_global_delete@@YAXPAXI@Z		; __empty_global_delete
PUBLIC	?sub@@YAHHH@Z					; sub
PUBLIC	__JustMyCode_Default
EXTRN	@__CheckForDebuggerJustMyCode@4:PROC
EXTRN	__RTC_CheckEsp:PROC
EXTRN	__RTC_InitBase:PROC
EXTRN	__RTC_Shutdown:PROC
;	COMDAT rtc$TMZ
rtc$TMZ	SEGMENT
__RTC_Shutdown.rtc$TMZ DD FLAT:__RTC_Shutdown
rtc$TMZ	ENDS
;	COMDAT rtc$IMZ
rtc$IMZ	SEGMENT
__RTC_InitBase.rtc$IMZ DD FLAT:__RTC_InitBase
rtc$IMZ	ENDS
; Function compile flags: /Odt
;	COMDAT __JustMyCode_Default
_TEXT	SEGMENT
__JustMyCode_Default PROC				; COMDAT
  00000	55		 push	 ebp
  00001	8b ec		 mov	 ebp, esp
  00003	5d		 pop	 ebp
  00004	c3		 ret	 0
__JustMyCode_Default ENDP
_TEXT	ENDS
; Function compile flags: /Odtp /RTCsu /ZI
; File D:\_УЧЁБА_\Лабораторные работы\КПО (Наркевич)\Лаба 2.1\SE_Lab02\Func_sub.cpp
;	COMDAT ?sub@@YAHHH@Z
_TEXT	SEGMENT
_a$ = 8							; size = 4
_b$ = 12						; size = 4
?sub@@YAHHH@Z PROC					; sub, COMDAT

; 3    : {

  00000	55		 push	 ebp
  00001	8b ec		 mov	 ebp, esp
  00003	81 ec c0 00 00
	00		 sub	 esp, 192		; 000000c0H
  00009	53		 push	 ebx
  0000a	56		 push	 esi
  0000b	57		 push	 edi
  0000c	8b fd		 mov	 edi, ebp
  0000e	33 c9		 xor	 ecx, ecx
  00010	b8 cc cc cc cc	 mov	 eax, -858993460		; ccccccccH
  00015	f3 ab		 rep stosd
  00017	b9 00 00 00 00	 mov	 ecx, OFFSET __35E92F2A_Func_sub@cpp
  0001c	e8 00 00 00 00	 call	 @__CheckForDebuggerJustMyCode@4

; 4    : 	return a - b;

  00021	8b 45 08	 mov	 eax, DWORD PTR _a$[ebp]
  00024	2b 45 0c	 sub	 eax, DWORD PTR _b$[ebp]

; 5    : }

  00027	5f		 pop	 edi
  00028	5e		 pop	 esi
  00029	5b		 pop	 ebx
  0002a	81 c4 c0 00 00
	00		 add	 esp, 192		; 000000c0H
  00030	3b ec		 cmp	 ebp, esp
  00032	e8 00 00 00 00	 call	 __RTC_CheckEsp
  00037	8b e5		 mov	 esp, ebp
  00039	5d		 pop	 ebp
  0003a	c3		 ret	 0
?sub@@YAHHH@Z ENDP					; sub
_TEXT	ENDS
; Function compile flags: /Odtp /RTCsu /ZI
; File D:\_УЧЁБА_\Лабораторные работы\КПО (Наркевич)\Лаба 2.1\SE_Lab02\Func_sub.cpp
;	COMDAT ?__empty_global_delete@@YAXPAXI@Z
_TEXT	SEGMENT
___formal$ = 8						; size = 4
___formal$ = 12						; size = 4
?__empty_global_delete@@YAXPAXI@Z PROC			; __empty_global_delete, COMDAT

  00000	55		 push	 ebp
  00001	8b ec		 mov	 ebp, esp
  00003	81 ec c0 00 00
	00		 sub	 esp, 192		; 000000c0H
  00009	53		 push	 ebx
  0000a	56		 push	 esi
  0000b	57		 push	 edi
  0000c	8b fd		 mov	 edi, ebp
  0000e	33 c9		 xor	 ecx, ecx
  00010	b8 cc cc cc cc	 mov	 eax, -858993460		; ccccccccH
  00015	f3 ab		 rep stosd
  00017	b9 00 00 00 00	 mov	 ecx, OFFSET __35E92F2A_Func_sub@cpp
  0001c	e8 00 00 00 00	 call	 @__CheckForDebuggerJustMyCode@4
  00021	5f		 pop	 edi
  00022	5e		 pop	 esi
  00023	5b		 pop	 ebx
  00024	81 c4 c0 00 00
	00		 add	 esp, 192		; 000000c0H
  0002a	3b ec		 cmp	 ebp, esp
  0002c	e8 00 00 00 00	 call	 __RTC_CheckEsp
  00031	8b e5		 mov	 esp, ebp
  00033	5d		 pop	 ebp
  00034	c3		 ret	 0
?__empty_global_delete@@YAXPAXI@Z ENDP			; __empty_global_delete
_TEXT	ENDS
; Function compile flags: /Odtp /RTCsu /ZI
; File D:\_УЧЁБА_\Лабораторные работы\КПО (Наркевич)\Лаба 2.1\SE_Lab02\Func_sub.cpp
;	COMDAT ?__empty_global_delete@@YAXPAX@Z
_TEXT	SEGMENT
___formal$ = 8						; size = 4
?__empty_global_delete@@YAXPAX@Z PROC			; __empty_global_delete, COMDAT

  00000	55		 push	 ebp
  00001	8b ec		 mov	 ebp, esp
  00003	81 ec c0 00 00
	00		 sub	 esp, 192		; 000000c0H
  00009	53		 push	 ebx
  0000a	56		 push	 esi
  0000b	57		 push	 edi
  0000c	8b fd		 mov	 edi, ebp
  0000e	33 c9		 xor	 ecx, ecx
  00010	b8 cc cc cc cc	 mov	 eax, -858993460		; ccccccccH
  00015	f3 ab		 rep stosd
  00017	b9 00 00 00 00	 mov	 ecx, OFFSET __35E92F2A_Func_sub@cpp
  0001c	e8 00 00 00 00	 call	 @__CheckForDebuggerJustMyCode@4
  00021	5f		 pop	 edi
  00022	5e		 pop	 esi
  00023	5b		 pop	 ebx
  00024	81 c4 c0 00 00
	00		 add	 esp, 192		; 000000c0H
  0002a	3b ec		 cmp	 ebp, esp
  0002c	e8 00 00 00 00	 call	 __RTC_CheckEsp
  00031	8b e5		 mov	 esp, ebp
  00033	5d		 pop	 ebp
  00034	c3		 ret	 0
?__empty_global_delete@@YAXPAX@Z ENDP			; __empty_global_delete
_TEXT	ENDS
END
