; Listing generated by Microsoft (R) Optimizing Compiler Version 19.30.30709.0 

	TITLE	D:\_УЧЁБА_\Лабораторные работы\КПО (Наркевич)\Лаба 2.1\SE_Lab02\Debug\SE_Lab02.obj
	.686P
	.XMM
	include listing.inc
	.model	flat

INCLUDELIB MSVCRTD
INCLUDELIB OLDNAMES

msvcjmc	SEGMENT
__5B95AFCC_concurrencysal@h DB 01H
__AF7C3541_sal@h DB 01H
__FF4CBCD4_vadefs@h DB 01H
__EF9B48C8_vcruntime@h DB 01H
__0B460DD5_xkeycheck@h DB 01H
__518BDD87_yvals_core@h DB 01H
__3937FC8D_limits@h DB 01H
__A64D14EB_climits DB 01H
__6569C2CA_corecrt@h DB 01H
__356604CF_vcruntime_new@h DB 01H
__6C55A9F6_vcruntime_new_debug@h DB 01H
__49916C16_crtdbg@h DB 01H
__98E9459B_crtdefs@h DB 01H
__7B851503_use_ansi@h DB 01H
__94E280A6_yvals@h DB 01H
__741AE07E_corecrt_math@h DB 01H
__91D68F2D_math@h DB 01H
__6C20D4D3_corecrt_malloc@h DB 01H
__C9393812_stddef@h DB 01H
__D493B9BD_corecrt_search@h DB 01H
__1473E23E_corecrt_wstdlib@h DB 01H
__B49664B7_stdlib@h DB 01H
__22A23619_cstdlib DB 01H
__808B274A_xtr1common DB 01H
__DB8DB16E_intrin0@inl@h DB 01H
__81C4FC90_intrin0@h DB 01H
__CDC63BF6_cmath DB 01H
__A2143F22_corecrt_stdio_config@h DB 01H
__829E1958_corecrt_wstdio@h DB 01H
__6DFAE8B8_stdio@h DB 01H
__3434F1A4_cstdio DB 01H
__CDDAF8CA_errno@h DB 01H
__E6DA1474_vcruntime_string@h DB 01H
__1FEB9909_corecrt_memcpy_s@h DB 01H
__A751F051_corecrt_memory@h DB 01H
__9200769A_corecrt_wstring@h DB 01H
__32E5F013_string@h DB 01H
__6E309EF9_cstring DB 01H
__C6E16F6F_corecrt_wconio@h DB 01H
__5DB64B66_corecrt_wctype@h DB 01H
__CB8D9B53_corecrt_wdirect@h DB 01H
__A9063C41_corecrt_share@h DB 01H
__6D390390_corecrt_wio@h DB 01H
__61BDDCD5_corecrt_wprocess@h DB 01H
__1157D6BA_corecrt_wtime@h DB 01H
__64F617E8_types@h DB 01H
__1DC1E279_stat@h DB 01H
__93DC0B45_wchar@h DB 01H
__AEBF27F7_cwchar DB 01H
__8769ECB4_cstddef DB 01H
__4153D9FF_initializer_list DB 01H
__E2B02480_xstddef DB 01H
__ED7FA2C1_iosfwd DB 01H
__8741D2B2_stdint@h DB 01H
__9FFCD764_cstdint DB 01H
__45EFCB1E_type_traits DB 01H
__15AFB392_utility DB 01H
__EB99AA4F_xutility DB 01H
__FA351D0F_iterator DB 01H
__5B81F060_share@h DB 01H
__69F41CE0___msvc_system_error_abi@hpp DB 01H
__A915855F_cerrno DB 01H
__20BB4341_malloc@h DB 01H
__3C5D8049_corecrt_terminate@h DB 01H
__517DF72F_eh@h DB 01H
__64BBACA4_vcruntime_exception@h DB 01H
__50B62B0D_exception DB 01H
__158E8E48_float@h DB 01H
__47703A23_cfloat DB 01H
__35511E07_isa_availability@h DB 01H
__21967747_limits DB 01H
__08BB6DA5_new DB 01H
__5ABAA7DB_xatomic@h DB 01H
__7F3AD051_xmemory DB 01H
__0BE956CD_xstring DB 01H
__D9F81150_stdexcept DB 01H
__121303D7_xcall_once@h DB 01H
__3C7795A9_xerrc@h DB 01H
__A0B61CF9_time@h DB 01H
__0B75A7FE_ctime DB 01H
__5D5D490E_xtimec@h DB 01H
__1ACB22B0_xthreads@h DB 01H
__4AA32B85_atomic DB 01H
__AD4E11F7_system_error DB 01H
__C40BCBAA_vcruntime_typeinfo@h DB 01H
__9B465956_typeinfo DB 01H
__9D387BC9_memory DB 01H
__B17D2CC6_xfacet DB 01H
__7C272235___msvc_xlocinfo_types@hpp DB 01H
__B2D2BA86_ctype@h DB 01H
__3BFF1603_cctype DB 01H
__A3D09DBA_locale@h DB 01H
__B10EEAC8_clocale DB 01H
__84CFBA9E_xlocinfo DB 01H
__D4D722FC_xlocale DB 01H
__BD2ACD8D_xiosbase DB 01H
__DB58A9EC_streambuf DB 01H
__4A5044EB_xlocnum DB 01H
__F07657B3_ios DB 01H
__C7C7F838_ostream DB 01H
__A417CD02_istream DB 01H
__89E0D050_iostream DB 01H
__B6EAFBAD_stdafx@h DB 01H
__6529D88F_SE_Lab02@cpp DB 01H
msvcjmc	ENDS
PUBLIC	?__empty_global_delete@@YAXPAX@Z		; __empty_global_delete
PUBLIC	?__empty_global_delete@@YAXPAXI@Z		; __empty_global_delete
PUBLIC	___local_stdio_printf_options
PUBLIC	__vfprintf_l
PUBLIC	_printf
PUBLIC	_main
PUBLIC	__JustMyCode_Default
PUBLIC	?_OptionsStorage@?1??__local_stdio_printf_options@@9@4_KA ; `__local_stdio_printf_options'::`2'::_OptionsStorage
PUBLIC	??_C@_0M@CHHBDEKH@1?5?$CL?53?5?$DN?5?$CFd?6@	; `string'
PUBLIC	??_C@_0M@CKGPEEOA@1?5?9?53?5?$DN?5?$CFd?6@	; `string'
PUBLIC	??_C@_0M@MILDFPJJ@1?5?$CK?53?5?$DN?5?$CFd?6@	; `string'
EXTRN	__imp____acrt_iob_func:PROC
EXTRN	__imp____stdio_common_vfprintf:PROC
EXTRN	?sum@@YAHHH@Z:PROC				; sum
EXTRN	?sub@@YAHHH@Z:PROC				; sub
EXTRN	?mul@@YAHHH@Z:PROC				; mul
EXTRN	@__CheckForDebuggerJustMyCode@4:PROC
EXTRN	__RTC_CheckEsp:PROC
EXTRN	__RTC_InitBase:PROC
EXTRN	__RTC_Shutdown:PROC
;	COMDAT ?_OptionsStorage@?1??__local_stdio_printf_options@@9@4_KA
_BSS	SEGMENT
?_OptionsStorage@?1??__local_stdio_printf_options@@9@4_KA DQ 01H DUP (?) ; `__local_stdio_printf_options'::`2'::_OptionsStorage
_BSS	ENDS
;	COMDAT rtc$TMZ
rtc$TMZ	SEGMENT
__RTC_Shutdown.rtc$TMZ DD FLAT:__RTC_Shutdown
rtc$TMZ	ENDS
;	COMDAT rtc$IMZ
rtc$IMZ	SEGMENT
__RTC_InitBase.rtc$IMZ DD FLAT:__RTC_InitBase
rtc$IMZ	ENDS
;	COMDAT ??_C@_0M@MILDFPJJ@1?5?$CK?53?5?$DN?5?$CFd?6@
CONST	SEGMENT
??_C@_0M@MILDFPJJ@1?5?$CK?53?5?$DN?5?$CFd?6@ DB '1 * 3 = %d', 0aH, 00H ; `string'
CONST	ENDS
;	COMDAT ??_C@_0M@CKGPEEOA@1?5?9?53?5?$DN?5?$CFd?6@
CONST	SEGMENT
??_C@_0M@CKGPEEOA@1?5?9?53?5?$DN?5?$CFd?6@ DB '1 - 3 = %d', 0aH, 00H ; `string'
CONST	ENDS
;	COMDAT ??_C@_0M@CHHBDEKH@1?5?$CL?53?5?$DN?5?$CFd?6@
CONST	SEGMENT
??_C@_0M@CHHBDEKH@1?5?$CL?53?5?$DN?5?$CFd?6@ DB '1 + 3 = %d', 0aH, 00H ; `string'
CONST	ENDS
; Function compile flags: /Odt
;	COMDAT __JustMyCode_Default
_TEXT	SEGMENT
__JustMyCode_Default PROC				; COMDAT
  00000	55		 push	 ebp
  00001	8b ec		 mov	 ebp, esp
  00003	5d		 pop	 ebp
  00004	c3		 ret	 0
__JustMyCode_Default ENDP
_TEXT	ENDS
; Function compile flags: /Odtp /RTCsu /ZI
; File D:\_УЧЁБА_\Лабораторные работы\КПО (Наркевич)\Лаба 2.1\SE_Lab02\SE_Lab02.cpp
;	COMDAT _main
_TEXT	SEGMENT
_main	PROC						; COMDAT

; 9    : {

  00000	55		 push	 ebp
  00001	8b ec		 mov	 ebp, esp
  00003	81 ec c0 00 00
	00		 sub	 esp, 192		; 000000c0H
  00009	53		 push	 ebx
  0000a	56		 push	 esi
  0000b	57		 push	 edi
  0000c	8b fd		 mov	 edi, ebp
  0000e	33 c9		 xor	 ecx, ecx
  00010	b8 cc cc cc cc	 mov	 eax, -858993460		; ccccccccH
  00015	f3 ab		 rep stosd
  00017	b9 00 00 00 00	 mov	 ecx, OFFSET __6529D88F_SE_Lab02@cpp
  0001c	e8 00 00 00 00	 call	 @__CheckForDebuggerJustMyCode@4

; 10   : 	printf("1 + 3 = %d\n", sum(1, 3));

  00021	6a 03		 push	 3
  00023	6a 01		 push	 1
  00025	e8 00 00 00 00	 call	 ?sum@@YAHHH@Z		; sum
  0002a	83 c4 08	 add	 esp, 8
  0002d	50		 push	 eax
  0002e	68 00 00 00 00	 push	 OFFSET ??_C@_0M@CHHBDEKH@1?5?$CL?53?5?$DN?5?$CFd?6@
  00033	e8 00 00 00 00	 call	 _printf
  00038	83 c4 08	 add	 esp, 8

; 11   : 	printf("1 - 3 = %d\n", sub(1, 3));

  0003b	6a 03		 push	 3
  0003d	6a 01		 push	 1
  0003f	e8 00 00 00 00	 call	 ?sub@@YAHHH@Z		; sub
  00044	83 c4 08	 add	 esp, 8
  00047	50		 push	 eax
  00048	68 00 00 00 00	 push	 OFFSET ??_C@_0M@CKGPEEOA@1?5?9?53?5?$DN?5?$CFd?6@
  0004d	e8 00 00 00 00	 call	 _printf
  00052	83 c4 08	 add	 esp, 8

; 12   : 	printf("1 * 3 = %d\n", mul(1, 3));

  00055	6a 03		 push	 3
  00057	6a 01		 push	 1
  00059	e8 00 00 00 00	 call	 ?mul@@YAHHH@Z		; mul
  0005e	83 c4 08	 add	 esp, 8
  00061	50		 push	 eax
  00062	68 00 00 00 00	 push	 OFFSET ??_C@_0M@MILDFPJJ@1?5?$CK?53?5?$DN?5?$CFd?6@
  00067	e8 00 00 00 00	 call	 _printf
  0006c	83 c4 08	 add	 esp, 8

; 13   : }

  0006f	33 c0		 xor	 eax, eax
  00071	5f		 pop	 edi
  00072	5e		 pop	 esi
  00073	5b		 pop	 ebx
  00074	81 c4 c0 00 00
	00		 add	 esp, 192		; 000000c0H
  0007a	3b ec		 cmp	 ebp, esp
  0007c	e8 00 00 00 00	 call	 __RTC_CheckEsp
  00081	8b e5		 mov	 esp, ebp
  00083	5d		 pop	 ebp
  00084	c3		 ret	 0
_main	ENDP
_TEXT	ENDS
; Function compile flags: /Odtp /RTCsu /ZI
; File C:\Program Files (x86)\Windows Kits\10\Include\10.0.19041.0\ucrt\stdio.h
;	COMDAT _printf
_TEXT	SEGMENT
__ArgList$ = -20					; size = 4
__Result$ = -8						; size = 4
__Format$ = 8						; size = 4
_printf	PROC						; COMDAT

; 956  :     {

  00000	55		 push	 ebp
  00001	8b ec		 mov	 ebp, esp
  00003	81 ec e4 00 00
	00		 sub	 esp, 228		; 000000e4H
  00009	53		 push	 ebx
  0000a	56		 push	 esi
  0000b	57		 push	 edi
  0000c	8d 7d dc	 lea	 edi, DWORD PTR [ebp-36]
  0000f	b9 09 00 00 00	 mov	 ecx, 9
  00014	b8 cc cc cc cc	 mov	 eax, -858993460		; ccccccccH
  00019	f3 ab		 rep stosd
  0001b	b9 00 00 00 00	 mov	 ecx, OFFSET __6DFAE8B8_stdio@h
  00020	e8 00 00 00 00	 call	 @__CheckForDebuggerJustMyCode@4

; 957  :         int _Result;
; 958  :         va_list _ArgList;
; 959  :         __crt_va_start(_ArgList, _Format);

  00025	8d 45 0c	 lea	 eax, DWORD PTR __Format$[ebp+4]
  00028	89 45 ec	 mov	 DWORD PTR __ArgList$[ebp], eax

; 960  :         _Result = _vfprintf_l(stdout, _Format, NULL, _ArgList);

  0002b	8b 45 ec	 mov	 eax, DWORD PTR __ArgList$[ebp]
  0002e	50		 push	 eax
  0002f	6a 00		 push	 0
  00031	8b 4d 08	 mov	 ecx, DWORD PTR __Format$[ebp]
  00034	51		 push	 ecx
  00035	8b f4		 mov	 esi, esp
  00037	6a 01		 push	 1
  00039	ff 15 00 00 00
	00		 call	 DWORD PTR __imp____acrt_iob_func
  0003f	83 c4 04	 add	 esp, 4
  00042	3b f4		 cmp	 esi, esp
  00044	e8 00 00 00 00	 call	 __RTC_CheckEsp
  00049	50		 push	 eax
  0004a	e8 00 00 00 00	 call	 __vfprintf_l
  0004f	83 c4 10	 add	 esp, 16			; 00000010H
  00052	89 45 f8	 mov	 DWORD PTR __Result$[ebp], eax

; 961  :         __crt_va_end(_ArgList);

  00055	c7 45 ec 00 00
	00 00		 mov	 DWORD PTR __ArgList$[ebp], 0

; 962  :         return _Result;

  0005c	8b 45 f8	 mov	 eax, DWORD PTR __Result$[ebp]

; 963  :     }

  0005f	5f		 pop	 edi
  00060	5e		 pop	 esi
  00061	5b		 pop	 ebx
  00062	81 c4 e4 00 00
	00		 add	 esp, 228		; 000000e4H
  00068	3b ec		 cmp	 ebp, esp
  0006a	e8 00 00 00 00	 call	 __RTC_CheckEsp
  0006f	8b e5		 mov	 esp, ebp
  00071	5d		 pop	 ebp
  00072	c3		 ret	 0
_printf	ENDP
_TEXT	ENDS
; Function compile flags: /Odtp /RTCsu /ZI
; File C:\Program Files (x86)\Windows Kits\10\Include\10.0.19041.0\ucrt\stdio.h
;	COMDAT __vfprintf_l
_TEXT	SEGMENT
__Stream$ = 8						; size = 4
__Format$ = 12						; size = 4
__Locale$ = 16						; size = 4
__ArgList$ = 20						; size = 4
__vfprintf_l PROC					; COMDAT

; 644  :     {

  00000	55		 push	 ebp
  00001	8b ec		 mov	 ebp, esp
  00003	81 ec c0 00 00
	00		 sub	 esp, 192		; 000000c0H
  00009	53		 push	 ebx
  0000a	56		 push	 esi
  0000b	57		 push	 edi
  0000c	8b fd		 mov	 edi, ebp
  0000e	33 c9		 xor	 ecx, ecx
  00010	b8 cc cc cc cc	 mov	 eax, -858993460		; ccccccccH
  00015	f3 ab		 rep stosd
  00017	b9 00 00 00 00	 mov	 ecx, OFFSET __6DFAE8B8_stdio@h
  0001c	e8 00 00 00 00	 call	 @__CheckForDebuggerJustMyCode@4

; 645  :         return __stdio_common_vfprintf(_CRT_INTERNAL_LOCAL_PRINTF_OPTIONS, _Stream, _Format, _Locale, _ArgList);

  00021	8b f4		 mov	 esi, esp
  00023	8b 45 14	 mov	 eax, DWORD PTR __ArgList$[ebp]
  00026	50		 push	 eax
  00027	8b 4d 10	 mov	 ecx, DWORD PTR __Locale$[ebp]
  0002a	51		 push	 ecx
  0002b	8b 55 0c	 mov	 edx, DWORD PTR __Format$[ebp]
  0002e	52		 push	 edx
  0002f	8b 45 08	 mov	 eax, DWORD PTR __Stream$[ebp]
  00032	50		 push	 eax
  00033	e8 00 00 00 00	 call	 ___local_stdio_printf_options
  00038	8b 48 04	 mov	 ecx, DWORD PTR [eax+4]
  0003b	51		 push	 ecx
  0003c	8b 10		 mov	 edx, DWORD PTR [eax]
  0003e	52		 push	 edx
  0003f	ff 15 00 00 00
	00		 call	 DWORD PTR __imp____stdio_common_vfprintf
  00045	83 c4 18	 add	 esp, 24			; 00000018H
  00048	3b f4		 cmp	 esi, esp
  0004a	e8 00 00 00 00	 call	 __RTC_CheckEsp

; 646  :     }

  0004f	5f		 pop	 edi
  00050	5e		 pop	 esi
  00051	5b		 pop	 ebx
  00052	81 c4 c0 00 00
	00		 add	 esp, 192		; 000000c0H
  00058	3b ec		 cmp	 ebp, esp
  0005a	e8 00 00 00 00	 call	 __RTC_CheckEsp
  0005f	8b e5		 mov	 esp, ebp
  00061	5d		 pop	 ebp
  00062	c3		 ret	 0
__vfprintf_l ENDP
_TEXT	ENDS
; Function compile flags: /Odtp /RTCsu /ZI
; File C:\Program Files (x86)\Windows Kits\10\Include\10.0.19041.0\ucrt\corecrt_stdio_config.h
;	COMDAT ___local_stdio_printf_options
_TEXT	SEGMENT
___local_stdio_printf_options PROC			; COMDAT

; 90   :     {

  00000	55		 push	 ebp
  00001	8b ec		 mov	 ebp, esp
  00003	81 ec c0 00 00
	00		 sub	 esp, 192		; 000000c0H
  00009	53		 push	 ebx
  0000a	56		 push	 esi
  0000b	57		 push	 edi
  0000c	8b fd		 mov	 edi, ebp
  0000e	33 c9		 xor	 ecx, ecx
  00010	b8 cc cc cc cc	 mov	 eax, -858993460		; ccccccccH
  00015	f3 ab		 rep stosd
  00017	b9 00 00 00 00	 mov	 ecx, OFFSET __A2143F22_corecrt_stdio_config@h
  0001c	e8 00 00 00 00	 call	 @__CheckForDebuggerJustMyCode@4

; 91   :         static unsigned __int64 _OptionsStorage;
; 92   :         return &_OptionsStorage;

  00021	b8 00 00 00 00	 mov	 eax, OFFSET ?_OptionsStorage@?1??__local_stdio_printf_options@@9@4_KA ; `__local_stdio_printf_options'::`2'::_OptionsStorage

; 93   :     }

  00026	5f		 pop	 edi
  00027	5e		 pop	 esi
  00028	5b		 pop	 ebx
  00029	81 c4 c0 00 00
	00		 add	 esp, 192		; 000000c0H
  0002f	3b ec		 cmp	 ebp, esp
  00031	e8 00 00 00 00	 call	 __RTC_CheckEsp
  00036	8b e5		 mov	 esp, ebp
  00038	5d		 pop	 ebp
  00039	c3		 ret	 0
___local_stdio_printf_options ENDP
_TEXT	ENDS
; Function compile flags: /Odtp /RTCsu /ZI
; File D:\_УЧЁБА_\Лабораторные работы\КПО (Наркевич)\Лаба 2.1\SE_Lab02\SE_Lab02.cpp
;	COMDAT ?__empty_global_delete@@YAXPAXI@Z
_TEXT	SEGMENT
___formal$ = 8						; size = 4
___formal$ = 12						; size = 4
?__empty_global_delete@@YAXPAXI@Z PROC			; __empty_global_delete, COMDAT

  00000	55		 push	 ebp
  00001	8b ec		 mov	 ebp, esp
  00003	81 ec c0 00 00
	00		 sub	 esp, 192		; 000000c0H
  00009	53		 push	 ebx
  0000a	56		 push	 esi
  0000b	57		 push	 edi
  0000c	8b fd		 mov	 edi, ebp
  0000e	33 c9		 xor	 ecx, ecx
  00010	b8 cc cc cc cc	 mov	 eax, -858993460		; ccccccccH
  00015	f3 ab		 rep stosd
  00017	b9 00 00 00 00	 mov	 ecx, OFFSET __6529D88F_SE_Lab02@cpp
  0001c	e8 00 00 00 00	 call	 @__CheckForDebuggerJustMyCode@4
  00021	5f		 pop	 edi
  00022	5e		 pop	 esi
  00023	5b		 pop	 ebx
  00024	81 c4 c0 00 00
	00		 add	 esp, 192		; 000000c0H
  0002a	3b ec		 cmp	 ebp, esp
  0002c	e8 00 00 00 00	 call	 __RTC_CheckEsp
  00031	8b e5		 mov	 esp, ebp
  00033	5d		 pop	 ebp
  00034	c3		 ret	 0
?__empty_global_delete@@YAXPAXI@Z ENDP			; __empty_global_delete
_TEXT	ENDS
; Function compile flags: /Odtp /RTCsu /ZI
; File D:\_УЧЁБА_\Лабораторные работы\КПО (Наркевич)\Лаба 2.1\SE_Lab02\SE_Lab02.cpp
;	COMDAT ?__empty_global_delete@@YAXPAX@Z
_TEXT	SEGMENT
___formal$ = 8						; size = 4
?__empty_global_delete@@YAXPAX@Z PROC			; __empty_global_delete, COMDAT

  00000	55		 push	 ebp
  00001	8b ec		 mov	 ebp, esp
  00003	81 ec c0 00 00
	00		 sub	 esp, 192		; 000000c0H
  00009	53		 push	 ebx
  0000a	56		 push	 esi
  0000b	57		 push	 edi
  0000c	8b fd		 mov	 edi, ebp
  0000e	33 c9		 xor	 ecx, ecx
  00010	b8 cc cc cc cc	 mov	 eax, -858993460		; ccccccccH
  00015	f3 ab		 rep stosd
  00017	b9 00 00 00 00	 mov	 ecx, OFFSET __6529D88F_SE_Lab02@cpp
  0001c	e8 00 00 00 00	 call	 @__CheckForDebuggerJustMyCode@4
  00021	5f		 pop	 edi
  00022	5e		 pop	 esi
  00023	5b		 pop	 ebx
  00024	81 c4 c0 00 00
	00		 add	 esp, 192		; 000000c0H
  0002a	3b ec		 cmp	 ebp, esp
  0002c	e8 00 00 00 00	 call	 __RTC_CheckEsp
  00031	8b e5		 mov	 esp, ebp
  00033	5d		 pop	 ebp
  00034	c3		 ret	 0
?__empty_global_delete@@YAXPAX@Z ENDP			; __empty_global_delete
_TEXT	ENDS
END
